; Function Attrs: nounwind sspstrong uwtable
define internal i64 @io_pathconf(i64 noundef %0, i64 noundef %1) #0 {
  %3 = and i64 %1, 1
  %.not.i = icmp eq i64 %3, 0
  br i1 %.not.i, label %6, label %4

4:                                                ; preds = %2
  %5 = tail call i64 @rb_fix2int(i64 noundef %1) #13
  br label %rb_num2int_inline.exit

6:                                                ; preds = %2
  %7 = tail call i64 @rb_num2int(i64 noundef %1) #13
  br label %rb_num2int_inline.exit

rb_num2int_inline.exit:                           ; preds = %4, %6
  %.0.i = phi i64 [ %5, %4 ], [ %7, %6 ]
  %8 = trunc i64 %.0.i to i32
  %9 = tail call ptr @rb_errno_ptr() #13
  store i32 0, ptr %9, align 4, !tbaa !21
  %10 = tail call i32 @rb_io_descriptor(i64 noundef %0) #13
  %11 = tail call i64 @fpathconf(i32 noundef %10, i32 noundef %8) #13
  %12 = icmp eq i64 %11, -1
  br i1 %12, label %13, label %18

13:                                               ; preds = %rb_num2int_inline.exit
  %14 = tail call ptr @rb_errno_ptr() #13
  %15 = load i32, ptr %14, align 4, !tbaa !21
  %16 = icmp eq i32 %15, 0
  br i1 %16, label %rb_long2num_inline.exit, label %17

17:                                               ; preds = %13
  tail call void @rb_sys_fail(ptr noundef nonnull @.str.231) #15
  unreachable

18:                                               ; preds = %rb_num2int_inline.exit
  %19 = add i64 %11, 4611686018427387904
  %or.cond.i = icmp sgt i64 %19, -1
  br i1 %or.cond.i, label %20, label %23

20:                                               ; preds = %18
  %21 = shl nsw i64 %11, 1
  %22 = or disjoint i64 %21, 1
  br label %rb_long2num_inline.exit

23:                                               ; preds = %18
  %24 = tail call i64 @rb_int2big(i64 noundef range(i64 0, -1) %11) #13
  br label %rb_long2num_inline.exit

rb_long2num_inline.exit:                          ; preds = %23, %20, %13
  %.0 = phi i64 [ 4, %13 ], [ %22, %20 ], [ %24, %23 ]
  ret i64 %.0
}